target datalayout = "e-m:e-p270:32:32-p271:32:32-p272:64:64-i64:64-i128:128-f80:128-n8:16:32:64-S128"
target triple = "x86_64-pc-linux-gnu"

%"struct.vcpkg::StringView" = type { ptr, i64 }
%"struct.vcpkg::Version" = type <{ %"class.std::__cxx11::basic_string", i32, [4 x i8] }>
%"class.std::__cxx11::basic_string" = type { %"struct.std::__cxx11::basic_string<char>::_Alloc_hider", i64, %union.anon }
%"struct.std::__cxx11::basic_string<char>::_Alloc_hider" = type { ptr }
%union.anon = type { i64, [8 x i8] }
%"struct.vcpkg::SchemedVersion" = type { i32, [4 x i8], %"struct.vcpkg::Version" }

@_ZN5vcpkg7VersionC1ENS_10StringViewEi = dso_local unnamed_addr alias void (ptr, ptr, i64, i32), ptr @_ZN5vcpkg7VersionC2ENS_10StringViewEi

; Function Attrs: mustprogress uwtable
define dso_local void @_ZN5vcpkg14SchemedVersionC2ENS_13VersionSchemeENS_10StringViewEi(ptr noundef nonnull align 8 dereferenceable(48) %0, i32 noundef %1, ptr %2, i64 %3, i32 noundef %4) unnamed_addr #2 align 2 {
  %6 = alloca %"struct.vcpkg::StringView", align 8
  %7 = alloca ptr, align 8
  %8 = alloca i32, align 4
  %9 = alloca i32, align 4
  %10 = alloca %"struct.vcpkg::StringView", align 8
  %11 = getelementptr inbounds { ptr, i64 }, ptr %6, i32 0, i32 0
  store ptr %2, ptr %11, align 8
  %12 = getelementptr inbounds { ptr, i64 }, ptr %6, i32 0, i32 1
  store i64 %3, ptr %12, align 8
  store ptr %0, ptr %7, align 8
  store i32 %1, ptr %8, align 4
  store i32 %4, ptr %9, align 4
  %13 = load ptr, ptr %7, align 8
  %14 = getelementptr inbounds %"struct.vcpkg::SchemedVersion", ptr %13, i32 0, i32 0
  %15 = load i32, ptr %8, align 4
  store i32 %15, ptr %14, align 8
  %16 = getelementptr inbounds %"struct.vcpkg::SchemedVersion", ptr %13, i32 0, i32 2
  call void @llvm.memcpy.p0.p0.i64(ptr align 8 %10, ptr align 8 %6, i64 16, i1 false)
  %17 = load i32, ptr %9, align 4
  %18 = getelementptr inbounds { ptr, i64 }, ptr %10, i32 0, i32 0
  %19 = load ptr, ptr %18, align 8
  %20 = getelementptr inbounds { ptr, i64 }, ptr %10, i32 0, i32 1
  %21 = load i64, ptr %20, align 8
  call void @_ZN5vcpkg7VersionC1ENS_10StringViewEi(ptr noundef nonnull align 8 dereferenceable(36) %16, ptr %19, i64 %21, i32 noundef %17)
  ret void
}