; Function Attrs: mustprogress uwtable
define dso_local void @_ZN5vcpkg14SchemedVersionC2ENS_13VersionSchemeENS_10StringViewEi(ptr noundef nonnull align 8 dereferenceable(48) %0, i32 noundef %1, ptr %2, i64 %3, i32 noundef %4) unnamed_addr #2 align 2 personality ptr @__gxx_personality_v0 {
  %6 = alloca %"class.std::allocator", align 1
  store i32 %1, ptr %0, align 8
  %7 = getelementptr inbounds i8, ptr %0, i64 8
  call void @llvm.lifetime.start.p0(i64 1, ptr nonnull %6)
  call void @_ZNSaIcEC1Ev(ptr noundef nonnull align 1 dereferenceable(1) %6) #19
  invoke void @_ZNSt7__cxx1112basic_stringIcSt11char_traitsIcESaIcEEC1EPKcmRKS3_(ptr noundef nonnull align 8 dereferenceable(32) %7, ptr noundef %2, i64 noundef %3, ptr noundef nonnull align 1 dereferenceable(1) %6)
          to label %_ZN5vcpkg7VersionC2ENS_10StringViewEi.exit unwind label %8

8:                                                ; preds = %5
  %9 = landingpad { ptr, i32 }
          cleanup
  call void @_ZNSaIcED1Ev(ptr noundef nonnull align 1 dereferenceable(1) %6) #19
  resume { ptr, i32 } %9

_ZN5vcpkg7VersionC2ENS_10StringViewEi.exit:       ; preds = %5
  call void @_ZNSaIcED1Ev(ptr noundef nonnull align 1 dereferenceable(1) %6) #19
  %10 = getelementptr inbounds i8, ptr %0, i64 40
  store i32 %4, ptr %10, align 8
  call void @llvm.lifetime.end.p0(i64 1, ptr nonnull %6)
  ret void
}